; Function Attrs: nounwind uwtable
define noalias nonnull ptr @l_Lake_Toml_trailing(ptr noundef %0) local_unnamed_addr #1 {
  tail call void @lean_inc_heartbeat() #4
  %2 = tail call noalias ptr @mi_malloc_small(i64 noundef 32) #4
  %3 = icmp eq ptr %2, null
  br i1 %3, label %4, label %lean_alloc_closure.exit

4:                                                ; preds = %1
  tail call void @lean_internal_panic_out_of_memory() #5
  unreachable

lean_alloc_closure.exit:                          ; preds = %1
  %5 = getelementptr inbounds nuw i8, ptr %2, i64 4
  store i32 1, ptr %2, align 4, !tbaa !4
  store i32 -184549344, ptr %5, align 4
  %6 = getelementptr inbounds nuw i8, ptr %2, i64 8
  store ptr @l_Lake_Toml_trailing___elambda__1, ptr %6, align 8, !tbaa !10
  %7 = getelementptr inbounds nuw i8, ptr %2, i64 16
  store i16 3, ptr %7, align 8, !tbaa !12
  %8 = getelementptr inbounds nuw i8, ptr %2, i64 18
  store i16 1, ptr %8, align 2, !tbaa !12
  %9 = getelementptr inbounds nuw i8, ptr %2, i64 24
  store ptr %0, ptr %9, align 8, !tbaa !10
  %10 = load ptr, ptr @l_Lean_Parser_epsilonInfo, align 8, !tbaa !10
  tail call void @lean_inc_heartbeat() #4
  %11 = tail call noalias ptr @mi_malloc_small(i64 noundef 24) #4
  %12 = icmp eq ptr %11, null
  br i1 %12, label %13, label %lean_alloc_ctor.exit

13:                                               ; preds = %lean_alloc_closure.exit
  tail call void @lean_internal_panic_out_of_memory() #5
  unreachable

lean_alloc_ctor.exit:                             ; preds = %lean_alloc_closure.exit
  %14 = getelementptr inbounds nuw i8, ptr %11, i64 4
  store i32 1, ptr %11, align 4, !tbaa !4
  store i32 131096, ptr %14, align 4
  %15 = getelementptr inbounds nuw i8, ptr %11, i64 8
  store ptr %10, ptr %15, align 8, !tbaa !10
  %16 = getelementptr inbounds nuw i8, ptr %11, i64 16
  store ptr %2, ptr %16, align 8, !tbaa !10
  ret ptr %11
}